target datalayout = "e-m:e-p270:32:32-p271:32:32-p272:64:64-i64:64-i128:128-f80:128-n8:16:32:64-S128"
target triple = "x86_64-pc-linux-gnu"

%struct.ARKodeMemRec = type { ptr, double, ptr, i32, i32, double, double, ptr, i32, double, ptr, i32, i32, ptr, ptr, i32, ptr, ptr, i32, ptr, ptr, ptr, ptr, ptr, ptr, ptr, ptr, ptr, ptr, ptr, ptr, ptr, ptr, ptr, i32, ptr, ptr, i32, ptr, i32, ptr, ptr, ptr, ptr, ptr, ptr, ptr, ptr, ptr, ptr, ptr, ptr, ptr, ptr, ptr, ptr, ptr, ptr, ptr, ptr, ptr, ptr, ptr, ptr, ptr, ptr, i32, ptr, ptr, ptr, ptr, ptr, ptr, ptr, i32, ptr, ptr, ptr, i32, ptr, ptr, ptr, ptr, ptr, ptr, ptr, i32, i32, i32, i32, double, double, double, double, double, double, double, double, double, double, i32, ptr, i64, i32, i32, i32, i32, i64, i64, i32, i64, i64, i64, i64, i64, i64, i64, double, double, double, double, double, i32, double, double, i32, i32, i32, i32, i32, i32, i32, i32, ptr, i32, ptr, ptr, ptr, ptr, i32, i32, i32 }

@.str = private unnamed_addr constant [115 x i8] c"generated/home/dtcxzyw/WorkSpace/Projects/compilers/llvm-opt-benchmark/bench/sundials/sundials/src/arkode/arkode.c\00", align 1
@.str.1 = private unnamed_addr constant [27 x i8] c"arkode_mem = NULL illegal.\00", align 1
@__func__.ARKodeGetDky = private unnamed_addr constant [13 x i8] c"ARKodeGetDky\00", align 1
@.str.29 = private unnamed_addr constant [20 x i8] c"dky = NULL illegal.\00", align 1
@.str.30 = private unnamed_addr constant [32 x i8] c"Missing interpolation structure\00", align 1
@.str.31 = private unnamed_addr constant [78 x i8] c"Illegal value for t. t = %lg is not between tcur - hold = %lg and tcur = %lg.\00", align 1
@.str.32 = private unnamed_addr constant [32 x i8] c"Error calling arkInterpEvaluate\00", align 1

; Function Attrs: nounwind uwtable
define i32 @ARKodeGetDky(ptr noundef %0, double noundef %1, i32 noundef %2, ptr noundef %3) #0 {
  %5 = alloca i32, align 4
  %6 = alloca ptr, align 8
  %7 = alloca double, align 8
  %8 = alloca i32, align 4
  %9 = alloca ptr, align 8
  %10 = alloca double, align 8
  %11 = alloca double, align 8
  %12 = alloca double, align 8
  %13 = alloca double, align 8
  %14 = alloca i32, align 4
  %15 = alloca ptr, align 8
  %16 = alloca i32, align 4
  store ptr %0, ptr %6, align 8, !tbaa !3
  store double %1, ptr %7, align 8, !tbaa !9
  store i32 %2, ptr %8, align 4, !tbaa !38
  store ptr %3, ptr %9, align 8, !tbaa !7
  call void @llvm.lifetime.start.p0(i64 8, ptr %10) #10
  call void @llvm.lifetime.start.p0(i64 8, ptr %11) #10
  call void @llvm.lifetime.start.p0(i64 8, ptr %12) #10
  call void @llvm.lifetime.start.p0(i64 8, ptr %13) #10
  call void @llvm.lifetime.start.p0(i64 4, ptr %14) #10
  call void @llvm.lifetime.start.p0(i64 8, ptr %15) #10
  %17 = load ptr, ptr %6, align 8, !tbaa !3
  %18 = icmp eq ptr %17, null
  br i1 %18, label %19, label %20

19:                                               ; preds = %4
  call void (ptr, i32, i32, ptr, ptr, ptr, ...) @arkProcessError(ptr noundef null, i32 noundef -21, i32 noundef 1162, ptr noundef @__func__.ARKodeGetDky, ptr noundef @.str, ptr noundef @.str.1)
  store i32 -21, ptr %5, align 4
  store i32 1, ptr %16, align 4
  br label %116

20:                                               ; preds = %4
  %21 = load ptr, ptr %6, align 8, !tbaa !3
  store ptr %21, ptr %15, align 8, !tbaa !11
  %22 = load ptr, ptr %9, align 8, !tbaa !7
  %23 = icmp eq ptr %22, null
  br i1 %23, label %24, label %26

24:                                               ; preds = %20
  %25 = load ptr, ptr %15, align 8, !tbaa !11
  call void (ptr, i32, i32, ptr, ptr, ptr, ...) @arkProcessError(ptr noundef %25, i32 noundef -26, i32 noundef 1171, ptr noundef @__func__.ARKodeGetDky, ptr noundef @.str, ptr noundef @.str.29)
  store i32 -26, ptr %5, align 4
  store i32 1, ptr %16, align 4
  br label %116

26:                                               ; preds = %20
  %27 = load ptr, ptr %15, align 8, !tbaa !11
  %28 = getelementptr inbounds nuw %struct.ARKodeMemRec, ptr %27, i32 0, i32 85
  %29 = load ptr, ptr %28, align 8, !tbaa !39
  %30 = icmp eq ptr %29, null
  br i1 %30, label %31, label %33

31:                                               ; preds = %26
  %32 = load ptr, ptr %15, align 8, !tbaa !11
  call void (ptr, i32, i32, ptr, ptr, ptr, ...) @arkProcessError(ptr noundef %32, i32 noundef -21, i32 noundef 1177, ptr noundef @__func__.ARKodeGetDky, ptr noundef @.str, ptr noundef @.str.30)
  store i32 -21, ptr %5, align 4
  store i32 1, ptr %16, align 4
  br label %116

33:                                               ; preds = %26
  %34 = load ptr, ptr %15, align 8, !tbaa !11
  %35 = getelementptr inbounds nuw %struct.ARKodeMemRec, ptr %34, i32 0, i32 1
  %36 = load double, ptr %35, align 8, !tbaa !28
  %37 = fmul double 1.000000e+02, %36
  %38 = load ptr, ptr %15, align 8, !tbaa !11
  %39 = getelementptr inbounds nuw %struct.ARKodeMemRec, ptr %38, i32 0, i32 98
  %40 = load double, ptr %39, align 8, !tbaa !22
  %41 = call double @llvm.fabs.f64(double %40)
  %42 = load ptr, ptr %15, align 8, !tbaa !11
  %43 = getelementptr inbounds nuw %struct.ARKodeMemRec, ptr %42, i32 0, i32 120
  %44 = load double, ptr %43, align 8, !tbaa !67
  %45 = call double @llvm.fabs.f64(double %44)
  %46 = fadd double %41, %45
  %47 = fmul double %37, %46
  store double %47, ptr %11, align 8, !tbaa !9
  %48 = load ptr, ptr %15, align 8, !tbaa !11
  %49 = getelementptr inbounds nuw %struct.ARKodeMemRec, ptr %48, i32 0, i32 120
  %50 = load double, ptr %49, align 8, !tbaa !67
  %51 = fcmp olt double %50, 0.000000e+00
  br i1 %51, label %52, label %55

52:                                               ; preds = %33
  %53 = load double, ptr %11, align 8, !tbaa !9
  %54 = fneg double %53
  store double %54, ptr %11, align 8, !tbaa !9
  br label %55

55:                                               ; preds = %52, %33
  %56 = load ptr, ptr %15, align 8, !tbaa !11
  %57 = getelementptr inbounds nuw %struct.ARKodeMemRec, ptr %56, i32 0, i32 98
  %58 = load double, ptr %57, align 8, !tbaa !22
  %59 = load ptr, ptr %15, align 8, !tbaa !11
  %60 = getelementptr inbounds nuw %struct.ARKodeMemRec, ptr %59, i32 0, i32 120
  %61 = load double, ptr %60, align 8, !tbaa !67
  %62 = fsub double %58, %61
  %63 = load double, ptr %11, align 8, !tbaa !9
  %64 = fsub double %62, %63
  store double %64, ptr %12, align 8, !tbaa !9
  %65 = load ptr, ptr %15, align 8, !tbaa !11
  %66 = getelementptr inbounds nuw %struct.ARKodeMemRec, ptr %65, i32 0, i32 98
  %67 = load double, ptr %66, align 8, !tbaa !22
  %68 = load double, ptr %11, align 8, !tbaa !9
  %69 = fadd double %67, %68
  store double %69, ptr %13, align 8, !tbaa !9
  %70 = load double, ptr %7, align 8, !tbaa !9
  %71 = load double, ptr %12, align 8, !tbaa !9
  %72 = fsub double %70, %71
  %73 = load double, ptr %7, align 8, !tbaa !9
  %74 = load double, ptr %13, align 8, !tbaa !9
  %75 = fsub double %73, %74
  %76 = fmul double %72, %75
  %77 = fcmp ogt double %76, 0.000000e+00
  br i1 %77, label %78, label %91

78:                                               ; preds = %55
  %79 = load ptr, ptr %15, align 8, !tbaa !11
  %80 = load double, ptr %7, align 8, !tbaa !9
  %81 = load ptr, ptr %15, align 8, !tbaa !11
  %82 = getelementptr inbounds nuw %struct.ARKodeMemRec, ptr %81, i32 0, i32 98
  %83 = load double, ptr %82, align 8, !tbaa !22
  %84 = load ptr, ptr %15, align 8, !tbaa !11
  %85 = getelementptr inbounds nuw %struct.ARKodeMemRec, ptr %84, i32 0, i32 120
  %86 = load double, ptr %85, align 8, !tbaa !67
  %87 = fsub double %83, %86
  %88 = load ptr, ptr %15, align 8, !tbaa !11
  %89 = getelementptr inbounds nuw %struct.ARKodeMemRec, ptr %88, i32 0, i32 98
  %90 = load double, ptr %89, align 8, !tbaa !22
  call void (ptr, i32, i32, ptr, ptr, ptr, ...) @arkProcessError(ptr noundef %79, i32 noundef -25, i32 noundef 1190, ptr noundef @__func__.ARKodeGetDky, ptr noundef @.str, ptr noundef @.str.31, double noundef %80, double noundef %87, double noundef %90)
  store i32 -25, ptr %5, align 4
  store i32 1, ptr %16, align 4
  br label %116

91:                                               ; preds = %55
  %92 = load double, ptr %7, align 8, !tbaa !9
  %93 = load ptr, ptr %15, align 8, !tbaa !11
  %94 = getelementptr inbounds nuw %struct.ARKodeMemRec, ptr %93, i32 0, i32 98
  %95 = load double, ptr %94, align 8, !tbaa !22
  %96 = fsub double %92, %95
  %97 = load ptr, ptr %15, align 8, !tbaa !11
  %98 = getelementptr inbounds nuw %struct.ARKodeMemRec, ptr %97, i32 0, i32 92
  %99 = load double, ptr %98, align 8, !tbaa !29
  %100 = fdiv double %96, %99
  store double %100, ptr %10, align 8, !tbaa !9
  %101 = load ptr, ptr %15, align 8, !tbaa !11
  %102 = load ptr, ptr %15, align 8, !tbaa !11
  %103 = getelementptr inbounds nuw %struct.ARKodeMemRec, ptr %102, i32 0, i32 85
  %104 = load ptr, ptr %103, align 8, !tbaa !39
  %105 = load double, ptr %10, align 8, !tbaa !9
  %106 = load i32, ptr %8, align 4, !tbaa !38
  %107 = load ptr, ptr %9, align 8, !tbaa !7
  %108 = call i32 @arkInterpEvaluate(ptr noundef %101, ptr noundef %104, double noundef %105, i32 noundef %106, i32 noundef 5, ptr noundef %107)
  store i32 %108, ptr %14, align 4, !tbaa !38
  %109 = load i32, ptr %14, align 4, !tbaa !38
  %110 = icmp ne i32 %109, 0
  br i1 %110, label %111, label %115

111:                                              ; preds = %91
  %112 = load ptr, ptr %15, align 8, !tbaa !11
  %113 = load i32, ptr %14, align 4, !tbaa !38
  call void (ptr, i32, i32, ptr, ptr, ptr, ...) @arkProcessError(ptr noundef %112, i32 noundef %113, i32 noundef 1202, ptr noundef @__func__.ARKodeGetDky, ptr noundef @.str, ptr noundef @.str.32)
  %114 = load i32, ptr %14, align 4, !tbaa !38
  store i32 %114, ptr %5, align 4
  store i32 1, ptr %16, align 4
  br label %116

115:                                              ; preds = %91
  store i32 0, ptr %5, align 4
  store i32 1, ptr %16, align 4
  br label %116

116:                                              ; preds = %115, %111, %78, %31, %24, %19
  call void @llvm.lifetime.end.p0(i64 8, ptr %15) #10
  call void @llvm.lifetime.end.p0(i64 4, ptr %14) #10
  call void @llvm.lifetime.end.p0(i64 8, ptr %13) #10
  call void @llvm.lifetime.end.p0(i64 8, ptr %12) #10
  call void @llvm.lifetime.end.p0(i64 8, ptr %11) #10
  call void @llvm.lifetime.end.p0(i64 8, ptr %10) #10
  %117 = load i32, ptr %5, align 4
  ret i32 %117
}