; Function Attrs: nounwind uwtable
define i32 @ARKodeGetDky(ptr noundef %0, double noundef %1, i32 noundef %2, ptr noundef %3) local_unnamed_addr #0 {
  %5 = icmp eq ptr %0, null
  br i1 %5, label %6, label %7

6:                                                ; preds = %4
  tail call void (ptr, i32, i32, ptr, ptr, ptr, ...) @arkProcessError(ptr noundef null, i32 noundef -21, i32 noundef 1162, ptr noundef nonnull @__func__.ARKodeGetDky, ptr noundef nonnull @.str, ptr noundef nonnull @.str.1)
  br label %44

7:                                                ; preds = %4
  %8 = icmp eq ptr %3, null
  br i1 %8, label %9, label %10

9:                                                ; preds = %7
  tail call void (ptr, i32, i32, ptr, ptr, ptr, ...) @arkProcessError(ptr noundef nonnull %0, i32 noundef -26, i32 noundef 1171, ptr noundef nonnull @__func__.ARKodeGetDky, ptr noundef nonnull @.str, ptr noundef nonnull @.str.29)
  br label %44

10:                                               ; preds = %7
  %11 = getelementptr inbounds nuw i8, ptr %0, i64 664
  %12 = load ptr, ptr %11, align 8, !tbaa !33
  %13 = icmp eq ptr %12, null
  br i1 %13, label %14, label %15

14:                                               ; preds = %10
  tail call void (ptr, i32, i32, ptr, ptr, ptr, ...) @arkProcessError(ptr noundef nonnull %0, i32 noundef -21, i32 noundef 1177, ptr noundef nonnull @__func__.ARKodeGetDky, ptr noundef nonnull @.str, ptr noundef nonnull @.str.30)
  br label %44

15:                                               ; preds = %10
  %16 = getelementptr inbounds nuw i8, ptr %0, i64 8
  %17 = load double, ptr %16, align 8, !tbaa !23
  %18 = fmul double %17, 1.000000e+02
  %19 = getelementptr inbounds nuw i8, ptr %0, i64 752
  %20 = load double, ptr %19, align 8, !tbaa !17
  %21 = tail call double @llvm.fabs.f64(double %20)
  %22 = getelementptr inbounds nuw i8, ptr %0, i64 912
  %23 = load double, ptr %22, align 8, !tbaa !75
  %24 = tail call double @llvm.fabs.f64(double %23)
  %25 = fadd double %21, %24
  %26 = fmul double %18, %25
  %27 = fcmp olt double %23, 0.000000e+00
  %28 = fneg double %26
  %.037 = select i1 %27, double %28, double %26
  %29 = fsub double %20, %23
  %30 = fsub double %29, %.037
  %31 = fadd double %20, %.037
  %32 = fsub double %1, %30
  %33 = fsub double %1, %31
  %34 = fmul double %32, %33
  %35 = fcmp ogt double %34, 0.000000e+00
  br i1 %35, label %36, label %37

36:                                               ; preds = %15
  tail call void (ptr, i32, i32, ptr, ptr, ptr, ...) @arkProcessError(ptr noundef nonnull %0, i32 noundef -25, i32 noundef 1190, ptr noundef nonnull @__func__.ARKodeGetDky, ptr noundef nonnull @.str, ptr noundef nonnull @.str.31, double noundef %1, double noundef %29, double noundef %20)
  br label %44

37:                                               ; preds = %15
  %38 = fsub double %1, %20
  %39 = getelementptr inbounds nuw i8, ptr %0, i64 704
  %40 = load double, ptr %39, align 8, !tbaa !24
  %41 = fdiv double %38, %40
  %42 = tail call i32 @arkInterpEvaluate(ptr noundef nonnull %0, ptr noundef nonnull %12, double noundef %41, i32 noundef %2, i32 noundef 5, ptr noundef nonnull %3) #16
  %.not = icmp eq i32 %42, 0
  br i1 %.not, label %44, label %43

43:                                               ; preds = %37
  tail call void (ptr, i32, i32, ptr, ptr, ptr, ...) @arkProcessError(ptr noundef nonnull %0, i32 noundef %42, i32 noundef 1202, ptr noundef nonnull @__func__.ARKodeGetDky, ptr noundef nonnull @.str, ptr noundef nonnull @.str.32)
  br label %44

44:                                               ; preds = %37, %43, %36, %14, %9, %6
  %.0 = phi i32 [ -21, %6 ], [ -26, %9 ], [ -21, %14 ], [ -25, %36 ], [ %42, %43 ], [ 0, %37 ]
  ret i32 %.0
}